target datalayout = "e-m:e-p270:32:32-p271:32:32-p272:64:64-i64:64-i128:128-f80:128-n8:16:32:64-S128"
target triple = "x86_64-pc-linux-gnu"

%struct.JNINativeInterface_ = type { ptr, ptr, ptr, ptr, ptr, ptr, ptr, ptr, ptr, ptr, ptr, ptr, ptr, ptr, ptr, ptr, ptr, ptr, ptr, ptr, ptr, ptr, ptr, ptr, ptr, ptr, ptr, ptr, ptr, ptr, ptr, ptr, ptr, ptr, ptr, ptr, ptr, ptr, ptr, ptr, ptr, ptr, ptr, ptr, ptr, ptr, ptr, ptr, ptr, ptr, ptr, ptr, ptr, ptr, ptr, ptr, ptr, ptr, ptr, ptr, ptr, ptr, ptr, ptr, ptr, ptr, ptr, ptr, ptr, ptr, ptr, ptr, ptr, ptr, ptr, ptr, ptr, ptr, ptr, ptr, ptr, ptr, ptr, ptr, ptr, ptr, ptr, ptr, ptr, ptr, ptr, ptr, ptr, ptr, ptr, ptr, ptr, ptr, ptr, ptr, ptr, ptr, ptr, ptr, ptr, ptr, ptr, ptr, ptr, ptr, ptr, ptr, ptr, ptr, ptr, ptr, ptr, ptr, ptr, ptr, ptr, ptr, ptr, ptr, ptr, ptr, ptr, ptr, ptr, ptr, ptr, ptr, ptr, ptr, ptr, ptr, ptr, ptr, ptr, ptr, ptr, ptr, ptr, ptr, ptr, ptr, ptr, ptr, ptr, ptr, ptr, ptr, ptr, ptr, ptr, ptr, ptr, ptr, ptr, ptr, ptr, ptr, ptr, ptr, ptr, ptr, ptr, ptr, ptr, ptr, ptr, ptr, ptr, ptr, ptr, ptr, ptr, ptr, ptr, ptr, ptr, ptr, ptr, ptr, ptr, ptr, ptr, ptr, ptr, ptr, ptr, ptr, ptr, ptr, ptr, ptr, ptr, ptr, ptr, ptr, ptr, ptr, ptr, ptr, ptr, ptr, ptr, ptr, ptr, ptr, ptr, ptr, ptr, ptr, ptr, ptr, ptr, ptr, ptr, ptr, ptr, ptr, ptr, ptr, ptr, ptr, ptr, ptr, ptr, ptr, ptr, ptr, ptr, ptr, ptr }
%struct.stat = type { i64, i64, i64, i32, i32, i32, i32, i64, i64, i64, i64, %struct.timespec, %struct.timespec, %struct.timespec, [3 x i64] }
%struct.timespec = type { i64, i64 }
%struct.my_statx = type { i32, i32, i64, i32, i32, i32, i16, [1 x i16], i64, i64, i64, i64, %struct.my_statx_timestamp, %struct.my_statx_timestamp, %struct.my_statx_timestamp, %struct.my_statx_timestamp, i32, i32, i32, i32, [14 x i64] }
%struct.my_statx_timestamp = type { i64, i32, i32 }

@my_statx_func = internal global ptr null, align 8
@.str.41 = private unnamed_addr constant [1 x i8] zeroinitializer, align 1
@.str.46 = private unnamed_addr constant [25 x i8] c"sun/nio/fs/UnixException\00", align 1
@.str.47 = private unnamed_addr constant [5 x i8] c"(I)V\00", align 1

; Function Attrs: nounwind uwtable
define internal void @throwUnixException(ptr noundef %0, i32 noundef %1) #0 {
  %3 = alloca ptr, align 8
  %4 = alloca i32, align 4
  %5 = alloca ptr, align 8
  store ptr %0, ptr %3, align 8
  store i32 %1, ptr %4, align 4
  %6 = load ptr, ptr %3, align 8
  %7 = load i32, ptr %4, align 4
  %8 = call ptr (ptr, ptr, ptr, ...) @JNU_NewObjectByName(ptr noundef %6, ptr noundef @.str.46, ptr noundef @.str.47, i32 noundef %7)
  store ptr %8, ptr %5, align 8
  %9 = load ptr, ptr %5, align 8
  %10 = icmp ne ptr %9, null
  br i1 %10, label %11, label %19

11:                                               ; preds = %2
  %12 = load ptr, ptr %3, align 8
  %13 = load ptr, ptr %12, align 8
  %14 = getelementptr inbounds %struct.JNINativeInterface_, ptr %13, i32 0, i32 13
  %15 = load ptr, ptr %14, align 8
  %16 = load ptr, ptr %3, align 8
  %17 = load ptr, ptr %5, align 8
  %18 = call i32 %15(ptr noundef %16, ptr noundef %17)
  br label %19

19:                                               ; preds = %11, %2
  ret void
}

; Function Attrs: nounwind uwtable
define internal i32 @statx_wrapper(i32 noundef %0, ptr noalias noundef %1, i32 noundef %2, i32 noundef %3, ptr noalias noundef %4) #0 {
  %6 = alloca i32, align 4
  %7 = alloca ptr, align 8
  %8 = alloca i32, align 4
  %9 = alloca i32, align 4
  %10 = alloca ptr, align 8
  store i32 %0, ptr %6, align 4
  store ptr %1, ptr %7, align 8
  store i32 %2, ptr %8, align 4
  store i32 %3, ptr %9, align 4
  store ptr %4, ptr %10, align 8
  %11 = load ptr, ptr @my_statx_func, align 8
  %12 = load i32, ptr %6, align 4
  %13 = load ptr, ptr %7, align 8
  %14 = load i32, ptr %8, align 4
  %15 = load i32, ptr %9, align 4
  %16 = load ptr, ptr %10, align 8
  %17 = call i32 %11(i32 noundef %12, ptr noundef %13, i32 noundef %14, i32 noundef %15, ptr noundef %16)
  ret i32 %17
}

; Function Attrs: nounwind uwtable
define void @Java_sun_nio_fs_UnixNativeDispatcher_fstat0(ptr noundef %0, ptr noundef %1, i32 noundef %2, ptr noundef %3) #0 {
  %5 = alloca ptr, align 8
  %6 = alloca ptr, align 8
  %7 = alloca i32, align 4
  %8 = alloca ptr, align 8
  %9 = alloca i32, align 4
  %10 = alloca %struct.stat, align 8
  %11 = alloca %struct.my_statx, align 8
  %12 = alloca i32, align 4
  %13 = alloca i32, align 4
  store ptr %0, ptr %5, align 8
  store ptr %1, ptr %6, align 8
  store i32 %2, ptr %7, align 4
  store ptr %3, ptr %8, align 8
  store i32 4096, ptr %12, align 4
  store i32 4095, ptr %13, align 4
  %14 = load ptr, ptr @my_statx_func, align 8
  %15 = icmp ne ptr %14, null
  br i1 %15, label %16, label %44

16:                                               ; preds = %4
  br label %17

17:                                               ; preds = %16
  br label %18

18:                                               ; preds = %30, %17
  %19 = load i32, ptr %7, align 4
  %20 = load i32, ptr %12, align 4
  %21 = load i32, ptr %13, align 4
  %22 = call i32 @statx_wrapper(i32 noundef %19, ptr noundef @.str.41, i32 noundef %20, i32 noundef %21, ptr noundef %11)
  store i32 %22, ptr %9, align 4
  br label %23

23:                                               ; preds = %18
  %24 = load i32, ptr %9, align 4
  %25 = icmp eq i32 %24, -1
  br i1 %25, label %26, label %30

26:                                               ; preds = %23
  %27 = call ptr @__errno_location() #7
  %28 = load i32, ptr %27, align 4
  %29 = icmp eq i32 %28, 4
  br label %30

30:                                               ; preds = %26, %23
  %31 = phi i1 [ false, %23 ], [ %29, %26 ]
  br i1 %31, label %18, label %32, !llvm.loop !16

32:                                               ; preds = %30
  br label %33

33:                                               ; preds = %32
  %34 = load i32, ptr %9, align 4
  %35 = icmp eq i32 %34, 0
  br i1 %35, label %36, label %39

36:                                               ; preds = %33
  %37 = load ptr, ptr %5, align 8
  %38 = load ptr, ptr %8, align 8
  call void @copy_statx_attributes(ptr noundef %37, ptr noundef %11, ptr noundef %38)
  br label %43

39:                                               ; preds = %33
  %40 = load ptr, ptr %5, align 8
  %41 = call ptr @__errno_location() #7
  %42 = load i32, ptr %41, align 4
  call void @throwUnixException(ptr noundef %40, i32 noundef %42)
  br label %43

43:                                               ; preds = %39, %36
  br label %69

44:                                               ; preds = %4
  br label %45

45:                                               ; preds = %44
  br label %46

46:                                               ; preds = %56, %45
  %47 = load i32, ptr %7, align 4
  %48 = call i32 @fstat64(i32 noundef %47, ptr noundef %10) #6
  store i32 %48, ptr %9, align 4
  br label %49

49:                                               ; preds = %46
  %50 = load i32, ptr %9, align 4
  %51 = icmp eq i32 %50, -1
  br i1 %51, label %52, label %56

52:                                               ; preds = %49
  %53 = call ptr @__errno_location() #7
  %54 = load i32, ptr %53, align 4
  %55 = icmp eq i32 %54, 4
  br label %56

56:                                               ; preds = %52, %49
  %57 = phi i1 [ false, %49 ], [ %55, %52 ]
  br i1 %57, label %46, label %58, !llvm.loop !17

58:                                               ; preds = %56
  br label %59

59:                                               ; preds = %58
  %60 = load i32, ptr %9, align 4
  %61 = icmp eq i32 %60, -1
  br i1 %61, label %62, label %66

62:                                               ; preds = %59
  %63 = load ptr, ptr %5, align 8
  %64 = call ptr @__errno_location() #7
  %65 = load i32, ptr %64, align 4
  call void @throwUnixException(ptr noundef %63, i32 noundef %65)
  br label %69

66:                                               ; preds = %59
  %67 = load ptr, ptr %5, align 8
  %68 = load ptr, ptr %8, align 8
  call void @copy_stat_attributes(ptr noundef %67, ptr noundef %10, ptr noundef %68)
  br label %69

69:                                               ; preds = %66, %62, %43
  ret void
}