; Function Attrs: nounwind uwtable
define void @Java_sun_nio_fs_UnixNativeDispatcher_fstat0(ptr noundef %0, ptr nocapture noundef readnone %1, i32 noundef %2, ptr noundef %3) local_unnamed_addr #0 {
  %5 = alloca %struct.stat, align 8
  %6 = alloca %struct.my_statx, align 8
  %7 = load ptr, ptr @my_statx_func, align 8
  %.not = icmp eq ptr %7, null
  br i1 %.not, label %.preheader, label %.preheader18

.preheader18:                                     ; preds = %4, %10
  %8 = load ptr, ptr @my_statx_func, align 8, !noalias !24
  %9 = call i32 %8(i32 noundef %2, ptr noundef nonnull @.str.41, i32 noundef 4096, i32 noundef 4095, ptr noundef nonnull %6) #11
  switch i32 %9, label %.preheader18..critedge_crit_edge [
    i32 -1, label %10
    i32 0, label %14
  ]

.preheader18..critedge_crit_edge:                 ; preds = %.preheader18
  %.pre = tail call ptr @__errno_location() #12
  br label %.critedge

10:                                               ; preds = %.preheader18
  %11 = tail call ptr @__errno_location() #12
  %12 = load i32, ptr %11, align 4
  %13 = icmp eq i32 %12, 4
  br i1 %13, label %.preheader18, label %.critedge, !llvm.loop !28

14:                                               ; preds = %.preheader18
  call fastcc void @copy_statx_attributes(ptr noundef %0, ptr noundef nonnull %6, ptr noundef %3)
  br label %throwUnixException.exit

.critedge:                                        ; preds = %10, %.preheader18..critedge_crit_edge
  %.pre-phi = phi ptr [ %.pre, %.preheader18..critedge_crit_edge ], [ %11, %10 ]
  %15 = load i32, ptr %.pre-phi, align 4
  %16 = call ptr (ptr, ptr, ptr, ...) @JNU_NewObjectByName(ptr noundef %0, ptr noundef nonnull @.str.46, ptr noundef nonnull @.str.47, i32 noundef %15) #11
  %.not.i = icmp eq ptr %16, null
  br i1 %.not.i, label %throwUnixException.exit, label %17

17:                                               ; preds = %.critedge
  %18 = load ptr, ptr %0, align 8
  %19 = getelementptr inbounds i8, ptr %18, i64 104
  %20 = load ptr, ptr %19, align 8
  %21 = call i32 %20(ptr noundef nonnull %0, ptr noundef nonnull %16) #11
  br label %throwUnixException.exit

.preheader:                                       ; preds = %4, %24
  %22 = call i32 @fstat64(i32 noundef %2, ptr noundef nonnull %5) #11
  %23 = icmp eq i32 %22, -1
  br i1 %23, label %24, label %.critedge15

24:                                               ; preds = %.preheader
  %25 = tail call ptr @__errno_location() #12
  %26 = load i32, ptr %25, align 4
  %27 = icmp eq i32 %26, 4
  br i1 %27, label %.preheader, label %.critedge2, !llvm.loop !29

.critedge2:                                       ; preds = %24
  %28 = tail call ptr (ptr, ptr, ptr, ...) @JNU_NewObjectByName(ptr noundef %0, ptr noundef nonnull @.str.46, ptr noundef nonnull @.str.47, i32 noundef %26) #11
  %.not.i16 = icmp eq ptr %28, null
  br i1 %.not.i16, label %throwUnixException.exit, label %29

29:                                               ; preds = %.critedge2
  %30 = load ptr, ptr %0, align 8
  %31 = getelementptr inbounds i8, ptr %30, i64 104
  %32 = load ptr, ptr %31, align 8
  %33 = tail call i32 %32(ptr noundef nonnull %0, ptr noundef nonnull %28) #11
  br label %throwUnixException.exit

.critedge15:                                      ; preds = %.preheader
  call fastcc void @copy_stat_attributes(ptr noundef %0, ptr noundef nonnull %5, ptr noundef %3)
  br label %throwUnixException.exit

throwUnixException.exit:                          ; preds = %29, %.critedge2, %17, %.critedge, %14, %.critedge15
  ret void
}